target datalayout = "e-m:e-p270:32:32-p271:32:32-p272:64:64-i64:64-i128:128-f80:128-n8:16:32:64-S128"
target triple = "x86_64-pc-linux-gnu"

%struct.AVFilterContext = type { ptr, ptr, ptr, ptr, ptr, i32, ptr, ptr, i32, ptr, ptr, i32, i32, ptr, ptr, ptr, ptr, i32, ptr, i32, i32 }
%struct.ATADenoiseContext = type { ptr, [4 x float], [4 x float], [4 x float], [4 x i32], [4 x i32], i32, i32, i32, [4 x i32], [4 x i32], [4 x i32], %struct.FFBufQueue, [4 x [129 x ptr]], [4 x [129 x i32]], [4 x [129 x float]], i32, i32, i32, i32, ptr, %struct.ATADenoiseDSPContext }
%struct.FFBufQueue = type { [129 x ptr], i16, i16 }
%struct.ATADenoiseDSPContext = type { [4 x ptr] }

@.str.35 = private unnamed_addr constant [61 x i8] c"size %d is invalid. Must be an odd value, setting it to %d.\0A\00", align 1

; Function Attrs: cold nounwind optsize uwtable
define internal i32 @init(ptr noundef %0) #0 {
  %2 = alloca ptr, align 8
  %3 = alloca ptr, align 8
  store ptr %0, ptr %2, align 8, !tbaa !4
  call void @llvm.lifetime.start.p0(i64 8, ptr %3) #9
  %4 = load ptr, ptr %2, align 8, !tbaa !4
  %5 = getelementptr inbounds nuw %struct.AVFilterContext, ptr %4, i32 0, i32 9
  %6 = load ptr, ptr %5, align 8, !tbaa !9
  store ptr %6, ptr %3, align 8, !tbaa !22
  %7 = load ptr, ptr %3, align 8, !tbaa !22
  %8 = getelementptr inbounds nuw %struct.ATADenoiseContext, ptr %7, i32 0, i32 16
  %9 = load i32, ptr %8, align 8, !tbaa !24
  %10 = and i32 %9, 1
  %11 = icmp ne i32 %10, 0
  br i1 %11, label %25, label %12

12:                                               ; preds = %1
  %13 = load ptr, ptr %2, align 8, !tbaa !4
  %14 = load ptr, ptr %3, align 8, !tbaa !22
  %15 = getelementptr inbounds nuw %struct.ATADenoiseContext, ptr %14, i32 0, i32 16
  %16 = load i32, ptr %15, align 8, !tbaa !24
  %17 = load ptr, ptr %3, align 8, !tbaa !22
  %18 = getelementptr inbounds nuw %struct.ATADenoiseContext, ptr %17, i32 0, i32 16
  %19 = load i32, ptr %18, align 8, !tbaa !24
  %20 = or i32 %19, 1
  call void (ptr, i32, ptr, ...) @av_log(ptr noundef %13, i32 noundef 24, ptr noundef @.str.35, i32 noundef %16, i32 noundef %20)
  %21 = load ptr, ptr %3, align 8, !tbaa !22
  %22 = getelementptr inbounds nuw %struct.ATADenoiseContext, ptr %21, i32 0, i32 16
  %23 = load i32, ptr %22, align 8, !tbaa !24
  %24 = or i32 %23, 1
  store i32 %24, ptr %22, align 8, !tbaa !24
  br label %25

25:                                               ; preds = %12, %1
  %26 = load ptr, ptr %3, align 8, !tbaa !22
  %27 = getelementptr inbounds nuw %struct.ATADenoiseContext, ptr %26, i32 0, i32 16
  %28 = load i32, ptr %27, align 8, !tbaa !24
  %29 = sdiv i32 %28, 2
  %30 = load ptr, ptr %3, align 8, !tbaa !22
  %31 = getelementptr inbounds nuw %struct.ATADenoiseContext, ptr %30, i32 0, i32 18
  store i32 %29, ptr %31, align 8, !tbaa !29
  %32 = load ptr, ptr %3, align 8, !tbaa !22
  %33 = getelementptr inbounds nuw %struct.ATADenoiseContext, ptr %32, i32 0, i32 18
  %34 = load i32, ptr %33, align 8, !tbaa !29
  %35 = load ptr, ptr %3, align 8, !tbaa !22
  %36 = getelementptr inbounds nuw %struct.ATADenoiseContext, ptr %35, i32 0, i32 17
  store i32 %34, ptr %36, align 4, !tbaa !30
  call void @llvm.lifetime.end.p0(i64 8, ptr %3) #9
  ret i32 0
}