; Function Attrs: cold nounwind optsize uwtable
define internal noundef i32 @init(ptr noundef %0) #0 {
  %2 = getelementptr inbounds nuw i8, ptr %0, i64 72
  %3 = load ptr, ptr %2, align 8, !tbaa !4
  %4 = getelementptr inbounds nuw i8, ptr %3, i64 9448
  %5 = load i32, ptr %4, align 8, !tbaa !20
  %6 = and i32 %5, 1
  %.not = icmp eq i32 %6, 0
  br i1 %.not, label %7, label %11

7:                                                ; preds = %1
  %8 = or disjoint i32 %5, 1
  tail call void (ptr, i32, ptr, ...) @av_log(ptr noundef nonnull %0, i32 noundef 24, ptr noundef nonnull @.str.35, i32 noundef %5, i32 noundef %8) #10
  %9 = load i32, ptr %4, align 8, !tbaa !20
  %10 = or i32 %9, 1
  store i32 %10, ptr %4, align 8, !tbaa !20
  br label %11

11:                                               ; preds = %7, %1
  %12 = phi i32 [ %10, %7 ], [ %5, %1 ]
  %13 = sdiv i32 %12, 2
  %14 = getelementptr inbounds nuw i8, ptr %3, i64 9456
  store i32 %13, ptr %14, align 8, !tbaa !25
  %15 = getelementptr inbounds nuw i8, ptr %3, i64 9452
  store i32 %13, ptr %15, align 4, !tbaa !26
  ret i32 0
}